target datalayout = "e-m:e-p270:32:32-p271:32:32-p272:64:64-i64:64-i128:128-f80:128-n8:16:32:64-S128"
target triple = "x86_64-pc-linux-gnu"

@.str.4 = private unnamed_addr constant [4 x i8] c".i \00", align 1
@.str.5 = private unnamed_addr constant [4 x i8] c".o \00", align 1

; Function Attrs: inlinehint nounwind willreturn memory(read) uwtable
define available_externally i32 @atoi(ptr noundef nonnull %0) #8 {
  %2 = alloca ptr, align 8
  store ptr %0, ptr %2, align 8, !tbaa !32
  %3 = load ptr, ptr %2, align 8, !tbaa !32
  %4 = call i64 @strtol(ptr noundef %3, ptr noundef null, i32 noundef 10) #13
  %5 = trunc i64 %4 to i32
  ret i32 %5
}

; Function Attrs: nounwind uwtable
define i32 @Mop_ManReadParams(ptr noundef %0, ptr noundef %1, ptr noundef %2) #0 {
  %4 = alloca i32, align 4
  %5 = alloca ptr, align 8
  %6 = alloca ptr, align 8
  %7 = alloca ptr, align 8
  %8 = alloca ptr, align 8
  %9 = alloca ptr, align 8
  %10 = alloca ptr, align 8
  %11 = alloca i32, align 4
  %12 = alloca i32, align 4
  store ptr %0, ptr %5, align 8, !tbaa !32
  store ptr %1, ptr %6, align 8, !tbaa !36
  store ptr %2, ptr %7, align 8, !tbaa !36
  call void @llvm.lifetime.start.p0(i64 8, ptr %8) #13
  %13 = load ptr, ptr %5, align 8, !tbaa !32
  %14 = call ptr @strstr(ptr noundef %13, ptr noundef @.str.4) #16
  store ptr %14, ptr %8, align 8, !tbaa !32
  call void @llvm.lifetime.start.p0(i64 8, ptr %9) #13
  %15 = load ptr, ptr %5, align 8, !tbaa !32
  %16 = call ptr @strstr(ptr noundef %15, ptr noundef @.str.5) #16
  store ptr %16, ptr %9, align 8, !tbaa !32
  call void @llvm.lifetime.start.p0(i64 8, ptr %10) #13
  %17 = load ptr, ptr %5, align 8, !tbaa !32
  store ptr %17, ptr %10, align 8, !tbaa !32
  call void @llvm.lifetime.start.p0(i64 4, ptr %11) #13
  store i32 0, ptr %11, align 4, !tbaa !3
  %18 = load ptr, ptr %8, align 8, !tbaa !32
  %19 = icmp eq ptr %18, null
  br i1 %19, label %23, label %20

20:                                               ; preds = %3
  %21 = load ptr, ptr %9, align 8, !tbaa !32
  %22 = icmp eq ptr %21, null
  br i1 %22, label %23, label %24

23:                                               ; preds = %20, %3
  store i32 -1, ptr %4, align 4
  store i32 1, ptr %12, align 4
  br label %48

24:                                               ; preds = %20
  %25 = load ptr, ptr %8, align 8, !tbaa !32
  %26 = getelementptr inbounds i8, ptr %25, i64 2
  %27 = call i32 @atoi(ptr noundef %26) #16
  %28 = load ptr, ptr %6, align 8, !tbaa !36
  store i32 %27, ptr %28, align 4, !tbaa !3
  %29 = load ptr, ptr %9, align 8, !tbaa !32
  %30 = getelementptr inbounds i8, ptr %29, i64 2
  %31 = call i32 @atoi(ptr noundef %30) #16
  %32 = load ptr, ptr %7, align 8, !tbaa !36
  store i32 %31, ptr %32, align 4, !tbaa !3
  br label %33

33:                                               ; preds = %37, %24
  %34 = load ptr, ptr %10, align 8, !tbaa !32
  %35 = load i8, ptr %34, align 1, !tbaa !37
  %36 = icmp ne i8 %35, 0
  br i1 %36, label %37, label %46

37:                                               ; preds = %33
  %38 = load ptr, ptr %10, align 8, !tbaa !32
  %39 = getelementptr inbounds nuw i8, ptr %38, i32 1
  store ptr %39, ptr %10, align 8, !tbaa !32
  %40 = load i8, ptr %38, align 1, !tbaa !37
  %41 = sext i8 %40 to i32
  %42 = icmp eq i32 %41, 10
  %43 = zext i1 %42 to i32
  %44 = load i32, ptr %11, align 4, !tbaa !3
  %45 = add nsw i32 %44, %43
  store i32 %45, ptr %11, align 4, !tbaa !3
  br label %33, !llvm.loop !38

46:                                               ; preds = %33
  %47 = load i32, ptr %11, align 4, !tbaa !3
  store i32 %47, ptr %4, align 4
  store i32 1, ptr %12, align 4
  br label %48

48:                                               ; preds = %46, %23
  call void @llvm.lifetime.end.p0(i64 4, ptr %11) #13
  call void @llvm.lifetime.end.p0(i64 8, ptr %10) #13
  call void @llvm.lifetime.end.p0(i64 8, ptr %9) #13
  call void @llvm.lifetime.end.p0(i64 8, ptr %8) #13
  %49 = load i32, ptr %4, align 4
  ret i32 %49
}