; Function Attrs: nofree nounwind uwtable
define i32 @Mop_ManReadParams(ptr noundef readonly %0, ptr noundef writeonly captures(none) %1, ptr noundef writeonly captures(none) %2) local_unnamed_addr #9 {
  %4 = tail call ptr @strstr(ptr noundef nonnull dereferenceable(1) %0, ptr noundef nonnull dereferenceable(1) @.str.4) #24
  %5 = tail call ptr @strstr(ptr noundef nonnull dereferenceable(1) %0, ptr noundef nonnull dereferenceable(1) @.str.5) #24
  %6 = icmp eq ptr %4, null
  %7 = icmp eq ptr %5, null
  %or.cond = select i1 %6, i1 true, i1 %7
  br i1 %or.cond, label %.loopexit, label %8

8:                                                ; preds = %3
  %9 = getelementptr inbounds nuw i8, ptr %4, i64 2
  %10 = tail call i64 @strtol(ptr noundef nonnull captures(none) %9, ptr noundef null, i32 noundef 10) #23
  %11 = trunc i64 %10 to i32
  store i32 %11, ptr %1, align 4, !tbaa !28
  %12 = getelementptr inbounds nuw i8, ptr %5, i64 2
  %13 = tail call i64 @strtol(ptr noundef nonnull captures(none) %12, ptr noundef null, i32 noundef 10) #23
  %14 = trunc i64 %13 to i32
  store i32 %14, ptr %2, align 4, !tbaa !28
  %15 = load i8, ptr %0, align 1, !tbaa !34
  %.not19 = icmp eq i8 %15, 0
  br i1 %.not19, label %.loopexit, label %.lr.ph

.lr.ph:                                           ; preds = %8, %.lr.ph
  %16 = phi i8 [ %21, %.lr.ph ], [ %15, %8 ]
  %.021 = phi i32 [ %20, %.lr.ph ], [ 0, %8 ]
  %.01420 = phi ptr [ %17, %.lr.ph ], [ %0, %8 ]
  %17 = getelementptr inbounds nuw i8, ptr %.01420, i64 1
  %18 = icmp eq i8 %16, 10
  %19 = zext i1 %18 to i32
  %20 = add nuw nsw i32 %.021, %19
  %21 = load i8, ptr %17, align 1, !tbaa !34
  %.not = icmp eq i8 %21, 0
  br i1 %.not, label %.loopexit, label %.lr.ph, !llvm.loop !35

.loopexit:                                        ; preds = %.lr.ph, %8, %3
  %.015 = phi i32 [ -1, %3 ], [ 0, %8 ], [ %20, %.lr.ph ]
  ret i32 %.015
}